; Function Attrs: mustprogress uwtable
define hidden noundef zeroext i1 @_ZNK4cvc58internal3smt11SetDefaults27incompatibleWithQuantifiersERKNS0_7OptionsERSo(ptr nocapture noundef nonnull readnone align 8 dereferenceable(17) %this, ptr nocapture noundef nonnull readonly align 8 dereferenceable(392) %opts, ptr noundef nonnull align 8 dereferenceable(8) %reason) local_unnamed_addr #3 align 2 {
entry:
  %smt = getelementptr inbounds i8, ptr %opts, i64 352
  %0 = load ptr, ptr %smt, align 8
  %ackermann = getelementptr inbounds i8, ptr %0, i64 2
  %1 = load i8, ptr %ackermann, align 2
  %2 = and i8 %1, 1
  %tobool.not = icmp eq i8 %2, 0
  br i1 %tobool.not, label %if.end, label %return.sink.split

if.end:                                           ; preds = %entry
  %arith = getelementptr inbounds i8, ptr %opts, i64 192
  %3 = load ptr, ptr %arith, align 8
  %nlRlvMode = getelementptr inbounds i8, ptr %3, i64 188
  %4 = load i32, ptr %nlRlvMode, align 4
  %cmp.not = icmp eq i32 %4, 0
  br i1 %cmp.not, label %return, label %return.sink.split

return.sink.split:                                ; preds = %if.end, %entry
  %.str.152.sink = phi ptr [ @.str.42, %entry ], [ @.str.152, %if.end ]
  %call3 = tail call noundef nonnull align 8 dereferenceable(8) ptr @_ZStlsISt11char_traitsIcEERSt13basic_ostreamIcT_ES5_PKc(ptr noundef nonnull align 8 dereferenceable(8) %reason, ptr noundef nonnull %.str.152.sink)
  br label %return

return:                                           ; preds = %return.sink.split, %if.end
  %retval.0 = phi i1 [ false, %if.end ], [ true, %return.sink.split ]
  ret i1 %retval.0
}